target datalayout = "e-m:e-p270:32:32-p271:32:32-p272:64:64-i64:64-i128:128-f80:128-n8:16:32:64-S128"
target triple = "x86_64-pc-linux-gnu"

; Function Attrs: nounwind uwtable
define hidden ptr @PKCS8_encrypt(i32 noundef %0, ptr noundef %1, ptr noundef %2, i32 noundef %3, ptr noundef %4, i64 noundef %5, i32 noundef %6, ptr noundef %7) #0 {
  %9 = alloca ptr, align 8
  %10 = alloca i32, align 4
  %11 = alloca ptr, align 8
  %12 = alloca ptr, align 8
  %13 = alloca i32, align 4
  %14 = alloca ptr, align 8
  %15 = alloca i64, align 8
  %16 = alloca i32, align 4
  %17 = alloca ptr, align 8
  %18 = alloca ptr, align 8
  %19 = alloca i64, align 8
  %20 = alloca i32, align 4
  %21 = alloca ptr, align 8
  store i32 %0, ptr %10, align 4, !tbaa !13
  store ptr %1, ptr %11, align 8, !tbaa !44
  store ptr %2, ptr %12, align 8, !tbaa !11
  store i32 %3, ptr %13, align 4, !tbaa !13
  store ptr %4, ptr %14, align 8, !tbaa !11
  store i64 %5, ptr %15, align 8, !tbaa !15
  store i32 %6, ptr %16, align 4, !tbaa !13
  store ptr %7, ptr %17, align 8, !tbaa !25
  call void @llvm.lifetime.start.p0(i64 8, ptr %18) #8
  store ptr null, ptr %18, align 8, !tbaa !11
  call void @llvm.lifetime.start.p0(i64 8, ptr %19) #8
  store i64 0, ptr %19, align 8, !tbaa !15
  %22 = load i32, ptr %10, align 4, !tbaa !13
  %23 = load ptr, ptr %12, align 8, !tbaa !11
  %24 = load i32, ptr %13, align 4, !tbaa !13
  %25 = call i32 @pass_to_pass_raw(i32 noundef %22, ptr noundef %23, i32 noundef %24, ptr noundef %18, ptr noundef %19)
  %26 = icmp ne i32 %25, 0
  br i1 %26, label %28, label %27

27:                                               ; preds = %8
  store ptr null, ptr %9, align 8
  store i32 1, ptr %20, align 4
  br label %46

28:                                               ; preds = %8
  call void @llvm.lifetime.start.p0(i64 8, ptr %21) #8
  %29 = load i32, ptr %10, align 4, !tbaa !13
  %30 = load ptr, ptr %11, align 8, !tbaa !44
  %31 = load ptr, ptr %18, align 8, !tbaa !11
  %32 = load i64, ptr %19, align 8, !tbaa !15
  %33 = load ptr, ptr %14, align 8, !tbaa !11
  %34 = load i64, ptr %15, align 8, !tbaa !15
  %35 = load i32, ptr %16, align 4, !tbaa !13
  %36 = load ptr, ptr %17, align 8, !tbaa !25
  %37 = call ptr @PKCS8_encrypt_pbe(i32 noundef %29, ptr noundef %30, ptr noundef %31, i64 noundef %32, ptr noundef %33, i64 noundef %34, i32 noundef %35, ptr noundef %36)
  store ptr %37, ptr %21, align 8, !tbaa !6
  %38 = load ptr, ptr %18, align 8, !tbaa !11
  %39 = icmp ne ptr %38, null
  br i1 %39, label %40, label %44

40:                                               ; preds = %28
  %41 = load ptr, ptr %18, align 8, !tbaa !11
  %42 = load i64, ptr %19, align 8, !tbaa !15
  call void @OPENSSL_cleanse(ptr noundef %41, i64 noundef %42)
  %43 = load ptr, ptr %18, align 8, !tbaa !11
  call void @free(ptr noundef %43) #8
  br label %44

44:                                               ; preds = %40, %28
  %45 = load ptr, ptr %21, align 8, !tbaa !6
  store ptr %45, ptr %9, align 8
  store i32 1, ptr %20, align 4
  call void @llvm.lifetime.end.p0(i64 8, ptr %21) #8
  br label %46

46:                                               ; preds = %44, %27
  call void @llvm.lifetime.end.p0(i64 8, ptr %19) #8
  call void @llvm.lifetime.end.p0(i64 8, ptr %18) #8
  %47 = load ptr, ptr %9, align 8
  ret ptr %47
}