; Function Attrs: nounwind uwtable
define hidden ptr @PKCS8_encrypt(i32 noundef %0, ptr noundef %1, ptr noundef %2, i32 noundef %3, ptr noundef %4, i64 noundef %5, i32 noundef %6, ptr noundef %7) local_unnamed_addr #0 {
  %9 = alloca ptr, align 8
  %10 = alloca i64, align 8
  call void @llvm.lifetime.start.p0(i64 8, ptr nonnull %9) #12
  store ptr null, ptr %9, align 8, !tbaa !6
  call void @llvm.lifetime.start.p0(i64 8, ptr nonnull %10) #12
  store i64 0, ptr %10, align 8, !tbaa !11
  %11 = call fastcc i32 @pass_to_pass_raw(i32 noundef %0, ptr noundef %2, i32 noundef %3, ptr noundef %9, ptr noundef %10)
  %.not = icmp eq i32 %11, 0
  br i1 %.not, label %17, label %12

12:                                               ; preds = %8
  %13 = load ptr, ptr %9, align 8, !tbaa !6
  %14 = load i64, ptr %10, align 8, !tbaa !11
  %15 = tail call ptr @PKCS8_encrypt_pbe(i32 noundef %0, ptr noundef %1, ptr noundef %13, i64 noundef %14, ptr noundef %4, i64 noundef %5, i32 noundef %6, ptr noundef %7)
  %.not11 = icmp eq ptr %13, null
  br i1 %.not11, label %17, label %16

16:                                               ; preds = %12
  tail call void @OPENSSL_cleanse(ptr noundef nonnull %13, i64 noundef %14) #12
  tail call void @free(ptr noundef nonnull %13) #12
  br label %17

17:                                               ; preds = %12, %16, %8
  %.0 = phi ptr [ null, %8 ], [ %15, %16 ], [ %15, %12 ]
  call void @llvm.lifetime.end.p0(i64 8, ptr nonnull %10) #12
  call void @llvm.lifetime.end.p0(i64 8, ptr nonnull %9) #12
  ret ptr %.0
}